target datalayout = "e-m:e-p270:32:32-p271:32:32-p272:64:64-i64:64-i128:128-f80:128-n8:16:32:64-S128"
target triple = "x86_64-unknown-linux-gnu"

%"class.hermes::vm::StorageProvider" = type { ptr, i64, i64, i64 }
%"class.llvh::ErrorOr" = type { %union.anon, i8, [7 x i8] }
%union.anon = type { %"struct.llvh::AlignedCharArrayUnion.10" }
%"struct.llvh::AlignedCharArrayUnion.10" = type { %"struct.llvh::AlignedCharArray.11" }
%"struct.llvh::AlignedCharArray.11" = type { [16 x i8] }
%"struct.llvh::AlignedCharArray" = type { [8 x i8] }

; Function Attrs: mustprogress nounwind uwtable
define linkonce_odr hidden noundef ptr @_ZN4llvh7ErrorOrIPvE10getStorageEv(ptr noundef nonnull align 8 dereferenceable(17) %this) #0 comdat align 2 {
entry:
  %this.addr = alloca ptr, align 8
  store ptr %this, ptr %this.addr, align 8
  %this1 = load ptr, ptr %this.addr, align 8
  %0 = getelementptr inbounds %"class.llvh::ErrorOr", ptr %this1, i32 0, i32 0
  %buffer = getelementptr inbounds %"struct.llvh::AlignedCharArray", ptr %0, i32 0, i32 0
  %arraydecay = getelementptr inbounds [8 x i8], ptr %buffer, i64 0, i64 0
  ret ptr %arraydecay
}

; Function Attrs: mustprogress nounwind uwtable
define linkonce_odr hidden void @_ZN4llvh7ErrorOrIPvED2Ev(ptr noundef nonnull align 8 dereferenceable(17) %this) unnamed_addr #0 comdat align 2 {
entry:
  %this.addr = alloca ptr, align 8
  store ptr %this, ptr %this.addr, align 8
  %this1 = load ptr, ptr %this.addr, align 8
  %HasError = getelementptr inbounds %"class.llvh::ErrorOr", ptr %this1, i32 0, i32 1
  %bf.load = load i8, ptr %HasError, align 8
  %bf.clear = and i8 %bf.load, 1
  %bf.cast = trunc i8 %bf.clear to i1
  br i1 %bf.cast, label %if.end, label %if.then

if.then:                                          ; preds = %entry
  %call = call noundef ptr @_ZN4llvh7ErrorOrIPvE10getStorageEv(ptr noundef nonnull align 8 dereferenceable(17) %this1)
  br label %if.end

if.end:                                           ; preds = %if.then, %entry
  ret void
}

; Function Attrs: mustprogress nounwind uwtable
define linkonce_odr hidden noundef zeroext i1 @_ZNK4llvh7ErrorOrIPvEcvbEv(ptr noundef nonnull align 8 dereferenceable(17) %this) #0 comdat align 2 {
entry:
  %this.addr = alloca ptr, align 8
  store ptr %this, ptr %this.addr, align 8
  %this1 = load ptr, ptr %this.addr, align 8
  %HasError = getelementptr inbounds %"class.llvh::ErrorOr", ptr %this1, i32 0, i32 1
  %bf.load = load i8, ptr %HasError, align 8
  %bf.clear = and i8 %bf.load, 1
  %bf.cast = trunc i8 %bf.clear to i1
  %lnot = xor i1 %bf.cast, true
  ret i1 %lnot
}

; Function Attrs: mustprogress nounwind uwtable
define hidden void @_ZN6hermes2vm15StorageProvider10newStorageEPKc(ptr noalias sret(%"class.llvh::ErrorOr") align 8 %agg.result, ptr noundef nonnull align 8 dereferenceable(32) %this, ptr noundef %name) #0 align 2 {
entry:
  %result.ptr = alloca ptr, align 8
  %this.addr = alloca ptr, align 8
  %name.addr = alloca ptr, align 8
  %nrvo = alloca i1, align 1
  store ptr %agg.result, ptr %result.ptr, align 8
  store ptr %this, ptr %this.addr, align 8
  store ptr %name, ptr %name.addr, align 8
  %this1 = load ptr, ptr %this.addr, align 8
  store i1 false, ptr %nrvo, align 1
  %0 = load ptr, ptr %name.addr, align 8
  %vtable = load ptr, ptr %this1, align 8
  %vfn = getelementptr inbounds ptr, ptr %vtable, i64 2
  %1 = load ptr, ptr %vfn, align 8
  call void %1(ptr sret(%"class.llvh::ErrorOr") align 8 %agg.result, ptr noundef nonnull align 8 dereferenceable(32) %this1, ptr noundef %0)
  %call = call noundef zeroext i1 @_ZNK4llvh7ErrorOrIPvEcvbEv(ptr noundef nonnull align 8 dereferenceable(17) %agg.result)
  br i1 %call, label %if.then, label %if.else

if.then:                                          ; preds = %entry
  %numSucceededAllocs_ = getelementptr inbounds %"class.hermes::vm::StorageProvider", ptr %this1, i32 0, i32 1
  %2 = load i64, ptr %numSucceededAllocs_, align 8
  %inc = add i64 %2, 1
  store i64 %inc, ptr %numSucceededAllocs_, align 8
  br label %if.end

if.else:                                          ; preds = %entry
  %numFailedAllocs_ = getelementptr inbounds %"class.hermes::vm::StorageProvider", ptr %this1, i32 0, i32 2
  %3 = load i64, ptr %numFailedAllocs_, align 8
  %inc2 = add i64 %3, 1
  store i64 %inc2, ptr %numFailedAllocs_, align 8
  br label %if.end

if.end:                                           ; preds = %if.else, %if.then
  store i1 true, ptr %nrvo, align 1
  %nrvo.val = load i1, ptr %nrvo, align 1
  br i1 %nrvo.val, label %nrvo.skipdtor, label %nrvo.unused

nrvo.unused:                                      ; preds = %if.end
  call void @_ZN4llvh7ErrorOrIPvED2Ev(ptr noundef nonnull align 8 dereferenceable(17) %agg.result) #11
  br label %nrvo.skipdtor

nrvo.skipdtor:                                    ; preds = %nrvo.unused, %if.end
  ret void
}