; Function Attrs: mustprogress nounwind uwtable
define hidden void @_ZN6hermes2vm15StorageProvider10newStorageEPKc(ptr noalias sret(%"class.llvh::ErrorOr") align 8 %agg.result, ptr noundef nonnull align 8 dereferenceable(32) %this, ptr noundef %name) local_unnamed_addr #3 align 2 {
entry:
  %vtable = load ptr, ptr %this, align 8
  %vfn = getelementptr inbounds i8, ptr %vtable, i64 16
  %0 = load ptr, ptr %vfn, align 8
  tail call void %0(ptr sret(%"class.llvh::ErrorOr") align 8 %agg.result, ptr noundef nonnull align 8 dereferenceable(32) %this, ptr noundef %name) #18
  %HasError.i = getelementptr inbounds i8, ptr %agg.result, i64 16
  %bf.load.i = load i8, ptr %HasError.i, align 8
  %1 = and i8 %bf.load.i, 1
  %bf.cast.not.i = icmp eq i8 %1, 0
  %. = select i1 %bf.cast.not.i, i64 8, i64 16
  %numSucceededAllocs_ = getelementptr inbounds i8, ptr %this, i64 %.
  %2 = load i64, ptr %numSucceededAllocs_, align 8
  %inc = add i64 %2, 1
  store i64 %inc, ptr %numSucceededAllocs_, align 8
  ret void
}